target datalayout = "e-m:e-p270:32:32-p271:32:32-p272:64:64-i64:64-i128:128-f80:128-n8:16:32:64-S128"
target triple = "x86_64-pc-linux-gnu"

%struct.Gia_Man_t_ = type { ptr, ptr, i32, i32, i32, i32, ptr, ptr, i32, i32, i32, ptr, ptr, %struct.Vec_Int_t_, %struct.Vec_Int_t_, i32, i32, i32, %struct.Vec_Int_t_, ptr, ptr, ptr, i32, i32, i32, i32, ptr, ptr, ptr, ptr, ptr, i32, i32, ptr, i32, ptr, ptr, ptr, ptr, ptr, ptr, ptr, ptr, ptr, ptr, ptr, ptr, ptr, ptr, ptr, ptr, ptr, ptr, %struct.Vec_Int_t_, %struct.Vec_Int_t_, ptr, ptr, ptr, ptr, ptr, ptr, ptr, ptr, ptr, ptr, ptr, ptr, ptr, ptr, ptr, ptr, ptr, ptr, ptr, ptr, ptr, i32, float, float, ptr, ptr, i32, ptr, ptr, ptr, ptr, ptr, ptr, ptr, ptr, ptr, ptr, ptr, ptr, ptr, ptr, ptr, i64, i64, ptr, ptr, i32, i32, i32, i32, i32, i32, i32, i32, i32, i32, i32, i32, ptr, ptr, ptr, ptr, ptr, ptr, ptr, ptr, i32, i32, i32, ptr, i32, i32, ptr, ptr, ptr, ptr, ptr, ptr, i32, i32, ptr, %struct.Vec_Int_t_, %struct.Vec_Int_t_, %struct.Vec_Int_t_, ptr, ptr, ptr, i32, i32, i32, i32, ptr, ptr, ptr, ptr, ptr }
%struct.Vec_Int_t_ = type { i32, i32, ptr }

; Function Attrs: inlinehint nounwind uwtable
define internal void @Vec_IntGrow(ptr noundef %0, i32 noundef %1) #1 {
  %3 = alloca ptr, align 8
  %4 = alloca i32, align 4
  store ptr %0, ptr %3, align 8, !tbaa !33
  store i32 %1, ptr %4, align 4, !tbaa !13
  %5 = load ptr, ptr %3, align 8, !tbaa !33
  %6 = getelementptr inbounds nuw %struct.Vec_Int_t_, ptr %5, i32 0, i32 0
  %7 = load i32, ptr %6, align 8, !tbaa !46
  %8 = load i32, ptr %4, align 4, !tbaa !13
  %9 = icmp sge i32 %7, %8
  br i1 %9, label %10, label %11

10:                                               ; preds = %2
  br label %36

11:                                               ; preds = %2
  %12 = load ptr, ptr %3, align 8, !tbaa !33
  %13 = getelementptr inbounds nuw %struct.Vec_Int_t_, ptr %12, i32 0, i32 2
  %14 = load ptr, ptr %13, align 8, !tbaa !38
  %15 = icmp ne ptr %14, null
  br i1 %15, label %16, label %24

16:                                               ; preds = %11
  %17 = load ptr, ptr %3, align 8, !tbaa !33
  %18 = getelementptr inbounds nuw %struct.Vec_Int_t_, ptr %17, i32 0, i32 2
  %19 = load ptr, ptr %18, align 8, !tbaa !38
  %20 = load i32, ptr %4, align 4, !tbaa !13
  %21 = sext i32 %20 to i64
  %22 = mul i64 4, %21
  %23 = call ptr @realloc(ptr noundef %19, i64 noundef %22) #15
  br label %29

24:                                               ; preds = %11
  %25 = load i32, ptr %4, align 4, !tbaa !13
  %26 = sext i32 %25 to i64
  %27 = mul i64 4, %26
  %28 = call noalias ptr @malloc(i64 noundef %27) #12
  br label %29

29:                                               ; preds = %24, %16
  %30 = phi ptr [ %23, %16 ], [ %28, %24 ]
  %31 = load ptr, ptr %3, align 8, !tbaa !33
  %32 = getelementptr inbounds nuw %struct.Vec_Int_t_, ptr %31, i32 0, i32 2
  store ptr %30, ptr %32, align 8, !tbaa !38
  %33 = load i32, ptr %4, align 4, !tbaa !13
  %34 = load ptr, ptr %3, align 8, !tbaa !33
  %35 = getelementptr inbounds nuw %struct.Vec_Int_t_, ptr %34, i32 0, i32 0
  store i32 %33, ptr %35, align 8, !tbaa !46
  br label %36

36:                                               ; preds = %29, %10
  ret void
}

; Function Attrs: inlinehint nounwind uwtable
define internal ptr @Vec_IntAlloc(i32 noundef %0) #1 {
  %2 = alloca i32, align 4
  %3 = alloca ptr, align 8
  store i32 %0, ptr %2, align 4, !tbaa !13
  call void @llvm.lifetime.start.p0(i64 8, ptr %3) #11
  %4 = call noalias ptr @malloc(i64 noundef 16) #12
  store ptr %4, ptr %3, align 8, !tbaa !33
  %5 = load i32, ptr %2, align 4, !tbaa !13
  %6 = icmp sgt i32 %5, 0
  br i1 %6, label %7, label %11

7:                                                ; preds = %1
  %8 = load i32, ptr %2, align 4, !tbaa !13
  %9 = icmp slt i32 %8, 16
  br i1 %9, label %10, label %11

10:                                               ; preds = %7
  store i32 16, ptr %2, align 4, !tbaa !13
  br label %11

11:                                               ; preds = %10, %7, %1
  %12 = load ptr, ptr %3, align 8, !tbaa !33
  %13 = getelementptr inbounds nuw %struct.Vec_Int_t_, ptr %12, i32 0, i32 1
  store i32 0, ptr %13, align 4, !tbaa !45
  %14 = load i32, ptr %2, align 4, !tbaa !13
  %15 = load ptr, ptr %3, align 8, !tbaa !33
  %16 = getelementptr inbounds nuw %struct.Vec_Int_t_, ptr %15, i32 0, i32 0
  store i32 %14, ptr %16, align 8, !tbaa !46
  %17 = load ptr, ptr %3, align 8, !tbaa !33
  %18 = getelementptr inbounds nuw %struct.Vec_Int_t_, ptr %17, i32 0, i32 0
  %19 = load i32, ptr %18, align 8, !tbaa !46
  %20 = icmp ne i32 %19, 0
  br i1 %20, label %21, label %28

21:                                               ; preds = %11
  %22 = load ptr, ptr %3, align 8, !tbaa !33
  %23 = getelementptr inbounds nuw %struct.Vec_Int_t_, ptr %22, i32 0, i32 0
  %24 = load i32, ptr %23, align 8, !tbaa !46
  %25 = sext i32 %24 to i64
  %26 = mul i64 4, %25
  %27 = call noalias ptr @malloc(i64 noundef %26) #12
  br label %29

28:                                               ; preds = %11
  br label %29

29:                                               ; preds = %28, %21
  %30 = phi ptr [ %27, %21 ], [ null, %28 ]
  %31 = load ptr, ptr %3, align 8, !tbaa !33
  %32 = getelementptr inbounds nuw %struct.Vec_Int_t_, ptr %31, i32 0, i32 2
  store ptr %30, ptr %32, align 8, !tbaa !38
  %33 = load ptr, ptr %3, align 8, !tbaa !33
  call void @llvm.lifetime.end.p0(i64 8, ptr %3) #11
  ret ptr %33
}

; Function Attrs: inlinehint nounwind uwtable
define internal void @Vec_IntWriteEntry(ptr noundef %0, i32 noundef %1, i32 noundef %2) #1 {
  %4 = alloca ptr, align 8
  %5 = alloca i32, align 4
  %6 = alloca i32, align 4
  store ptr %0, ptr %4, align 8, !tbaa !33
  store i32 %1, ptr %5, align 4, !tbaa !13
  store i32 %2, ptr %6, align 4, !tbaa !13
  %7 = load i32, ptr %6, align 4, !tbaa !13
  %8 = load ptr, ptr %4, align 8, !tbaa !33
  %9 = getelementptr inbounds nuw %struct.Vec_Int_t_, ptr %8, i32 0, i32 2
  %10 = load ptr, ptr %9, align 8, !tbaa !38
  %11 = load i32, ptr %5, align 4, !tbaa !13
  %12 = sext i32 %11 to i64
  %13 = getelementptr inbounds i32, ptr %10, i64 %12
  store i32 %7, ptr %13, align 4, !tbaa !13
  ret void
}

; Function Attrs: inlinehint nounwind uwtable
define internal i32 @Gia_ManSifTimeToCount(i32 noundef %0, i32 noundef %1) #1 {
  %3 = alloca i32, align 4
  %4 = alloca i32, align 4
  store i32 %0, ptr %3, align 4, !tbaa !13
  store i32 %1, ptr %4, align 4, !tbaa !13
  %5 = load i32, ptr %4, align 4, !tbaa !13
  %6 = mul nsw i32 %5, 65535
  %7 = load i32, ptr %3, align 4, !tbaa !13
  %8 = add nsw i32 %6, %7
  %9 = load i32, ptr %4, align 4, !tbaa !13
  %10 = sdiv i32 %8, %9
  %11 = load i32, ptr %4, align 4, !tbaa !13
  %12 = mul nsw i32 %11, 65535
  %13 = load i32, ptr %3, align 4, !tbaa !13
  %14 = add nsw i32 %12, %13
  %15 = load i32, ptr %4, align 4, !tbaa !13
  %16 = srem i32 %14, %15
  %17 = icmp ne i32 %16, 0
  %18 = zext i1 %17 to i32
  %19 = add nsw i32 %10, %18
  %20 = sub nsw i32 %19, 65536
  ret i32 %20
}

; Function Attrs: inlinehint nounwind uwtable
define internal i32 @Gia_ObjIsLut(ptr noundef %0, i32 noundef %1) #1 {
  %3 = alloca ptr, align 8
  %4 = alloca i32, align 4
  store ptr %0, ptr %3, align 8, !tbaa !3
  store i32 %1, ptr %4, align 4, !tbaa !13
  %5 = load ptr, ptr %3, align 8, !tbaa !3
  %6 = getelementptr inbounds nuw %struct.Gia_Man_t_, ptr %5, i32 0, i32 37
  %7 = load ptr, ptr %6, align 8, !tbaa !37
  %8 = load i32, ptr %4, align 4, !tbaa !13
  %9 = call i32 @Vec_IntEntry(ptr noundef %7, i32 noundef %8)
  %10 = icmp ne i32 %9, 0
  %11 = zext i1 %10 to i32
  ret i32 %11
}

; Function Attrs: inlinehint nounwind uwtable
define internal i32 @Vec_IntEntry(ptr noundef %0, i32 noundef %1) #1 {
  %3 = alloca ptr, align 8
  %4 = alloca i32, align 4
  store ptr %0, ptr %3, align 8, !tbaa !33
  store i32 %1, ptr %4, align 4, !tbaa !13
  %5 = load ptr, ptr %3, align 8, !tbaa !33
  %6 = getelementptr inbounds nuw %struct.Vec_Int_t_, ptr %5, i32 0, i32 2
  %7 = load ptr, ptr %6, align 8, !tbaa !38
  %8 = load i32, ptr %4, align 4, !tbaa !13
  %9 = sext i32 %8 to i64
  %10 = getelementptr inbounds i32, ptr %7, i64 %9
  %11 = load i32, ptr %10, align 4, !tbaa !13
  ret i32 %11
}

; Function Attrs: inlinehint nounwind uwtable
define internal i32 @Vec_IntSize(ptr noundef %0) #1 {
  %2 = alloca ptr, align 8
  store ptr %0, ptr %2, align 8, !tbaa !33
  %3 = load ptr, ptr %2, align 8, !tbaa !33
  %4 = getelementptr inbounds nuw %struct.Vec_Int_t_, ptr %3, i32 0, i32 1
  %5 = load i32, ptr %4, align 4, !tbaa !45
  ret i32 %5
}

; Function Attrs: inlinehint nounwind uwtable
define internal void @Vec_IntFillExtra(ptr noundef %0, i32 noundef %1, i32 noundef %2) #1 {
  %4 = alloca ptr, align 8
  %5 = alloca i32, align 4
  %6 = alloca i32, align 4
  %7 = alloca i32, align 4
  %8 = alloca i32, align 4
  store ptr %0, ptr %4, align 8, !tbaa !33
  store i32 %1, ptr %5, align 4, !tbaa !13
  store i32 %2, ptr %6, align 4, !tbaa !13
  call void @llvm.lifetime.start.p0(i64 4, ptr %7) #11
  %9 = load i32, ptr %5, align 4, !tbaa !13
  %10 = load ptr, ptr %4, align 8, !tbaa !33
  %11 = getelementptr inbounds nuw %struct.Vec_Int_t_, ptr %10, i32 0, i32 1
  %12 = load i32, ptr %11, align 4, !tbaa !45
  %13 = icmp sle i32 %9, %12
  br i1 %13, label %14, label %15

14:                                               ; preds = %3
  store i32 1, ptr %8, align 4
  br label %61

15:                                               ; preds = %3
  %16 = load i32, ptr %5, align 4, !tbaa !13
  %17 = load ptr, ptr %4, align 8, !tbaa !33
  %18 = getelementptr inbounds nuw %struct.Vec_Int_t_, ptr %17, i32 0, i32 0
  %19 = load i32, ptr %18, align 8, !tbaa !46
  %20 = mul nsw i32 2, %19
  %21 = icmp sgt i32 %16, %20
  br i1 %21, label %22, label %25

22:                                               ; preds = %15
  %23 = load ptr, ptr %4, align 8, !tbaa !33
  %24 = load i32, ptr %5, align 4, !tbaa !13
  call void @Vec_IntGrow(ptr noundef %23, i32 noundef %24)
  br label %38

25:                                               ; preds = %15
  %26 = load i32, ptr %5, align 4, !tbaa !13
  %27 = load ptr, ptr %4, align 8, !tbaa !33
  %28 = getelementptr inbounds nuw %struct.Vec_Int_t_, ptr %27, i32 0, i32 0
  %29 = load i32, ptr %28, align 8, !tbaa !46
  %30 = icmp sgt i32 %26, %29
  br i1 %30, label %31, label %37

31:                                               ; preds = %25
  %32 = load ptr, ptr %4, align 8, !tbaa !33
  %33 = load ptr, ptr %4, align 8, !tbaa !33
  %34 = getelementptr inbounds nuw %struct.Vec_Int_t_, ptr %33, i32 0, i32 0
  %35 = load i32, ptr %34, align 8, !tbaa !46
  %36 = mul nsw i32 2, %35
  call void @Vec_IntGrow(ptr noundef %32, i32 noundef %36)
  br label %37

37:                                               ; preds = %31, %25
  br label %38

38:                                               ; preds = %37, %22
  %39 = load ptr, ptr %4, align 8, !tbaa !33
  %40 = getelementptr inbounds nuw %struct.Vec_Int_t_, ptr %39, i32 0, i32 1
  %41 = load i32, ptr %40, align 4, !tbaa !45
  store i32 %41, ptr %7, align 4, !tbaa !13
  br label %42

42:                                               ; preds = %54, %38
  %43 = load i32, ptr %7, align 4, !tbaa !13
  %44 = load i32, ptr %5, align 4, !tbaa !13
  %45 = icmp slt i32 %43, %44
  br i1 %45, label %46, label %57

46:                                               ; preds = %42
  %47 = load i32, ptr %6, align 4, !tbaa !13
  %48 = load ptr, ptr %4, align 8, !tbaa !33
  %49 = getelementptr inbounds nuw %struct.Vec_Int_t_, ptr %48, i32 0, i32 2
  %50 = load ptr, ptr %49, align 8, !tbaa !38
  %51 = load i32, ptr %7, align 4, !tbaa !13
  %52 = sext i32 %51 to i64
  %53 = getelementptr inbounds i32, ptr %50, i64 %52
  store i32 %47, ptr %53, align 4, !tbaa !13
  br label %54

54:                                               ; preds = %46
  %55 = load i32, ptr %7, align 4, !tbaa !13
  %56 = add nsw i32 %55, 1
  store i32 %56, ptr %7, align 4, !tbaa !13
  br label %42, !llvm.loop !102

57:                                               ; preds = %42
  %58 = load i32, ptr %5, align 4, !tbaa !13
  %59 = load ptr, ptr %4, align 8, !tbaa !33
  %60 = getelementptr inbounds nuw %struct.Vec_Int_t_, ptr %59, i32 0, i32 1
  store i32 %58, ptr %60, align 4, !tbaa !45
  store i32 0, ptr %8, align 4
  br label %61

61:                                               ; preds = %57, %14
  call void @llvm.lifetime.end.p0(i64 4, ptr %7) #11
  %62 = load i32, ptr %8, align 4
  switch i32 %62, label %64 [
    i32 0, label %63
    i32 1, label %63
  ]

63:                                               ; preds = %61, %61
  ret void

64:                                               ; preds = %61
  unreachable
}

; Function Attrs: inlinehint nounwind uwtable
define internal ptr @Vec_IntStart(i32 noundef %0) #1 {
  %2 = alloca i32, align 4
  %3 = alloca ptr, align 8
  store i32 %0, ptr %2, align 4, !tbaa !13
  call void @llvm.lifetime.start.p0(i64 8, ptr %3) #11
  %4 = load i32, ptr %2, align 4, !tbaa !13
  %5 = call ptr @Vec_IntAlloc(i32 noundef %4)
  store ptr %5, ptr %3, align 8, !tbaa !33
  %6 = load i32, ptr %2, align 4, !tbaa !13
  %7 = load ptr, ptr %3, align 8, !tbaa !33
  %8 = getelementptr inbounds nuw %struct.Vec_Int_t_, ptr %7, i32 0, i32 1
  store i32 %6, ptr %8, align 4, !tbaa !45
  %9 = load ptr, ptr %3, align 8, !tbaa !33
  %10 = getelementptr inbounds nuw %struct.Vec_Int_t_, ptr %9, i32 0, i32 2
  %11 = load ptr, ptr %10, align 8, !tbaa !38
  %12 = icmp ne ptr %11, null
  br i1 %12, label %13, label %20

13:                                               ; preds = %1
  %14 = load ptr, ptr %3, align 8, !tbaa !33
  %15 = getelementptr inbounds nuw %struct.Vec_Int_t_, ptr %14, i32 0, i32 2
  %16 = load ptr, ptr %15, align 8, !tbaa !38
  %17 = load i32, ptr %2, align 4, !tbaa !13
  %18 = sext i32 %17 to i64
  %19 = mul i64 4, %18
  call void @llvm.memset.p0.i64(ptr align 4 %16, i8 0, i64 %19, i1 false)
  br label %20

20:                                               ; preds = %13, %1
  %21 = load ptr, ptr %3, align 8, !tbaa !33
  call void @llvm.lifetime.end.p0(i64 8, ptr %3) #11
  ret ptr %21
}

; Function Attrs: inlinehint nounwind uwtable
define internal i32 @Gia_ManObjNum(ptr noundef %0) #1 {
  %2 = alloca ptr, align 8
  store ptr %0, ptr %2, align 8, !tbaa !3
  %3 = load ptr, ptr %2, align 8, !tbaa !3
  %4 = getelementptr inbounds nuw %struct.Gia_Man_t_, ptr %3, i32 0, i32 4
  %5 = load i32, ptr %4, align 8, !tbaa !47
  ret i32 %5
}

; Function Attrs: nounwind uwtable
define ptr @Gia_ManSifTimesToCounts(ptr noundef %0, ptr noundef %1, i32 noundef %2) #0 {
  %4 = alloca ptr, align 8
  %5 = alloca ptr, align 8
  %6 = alloca i32, align 4
  %7 = alloca i32, align 4
  %8 = alloca i32, align 4
  %9 = alloca ptr, align 8
  store ptr %0, ptr %4, align 8, !tbaa !3
  store ptr %1, ptr %5, align 8, !tbaa !33
  store i32 %2, ptr %6, align 4, !tbaa !13
  call void @llvm.lifetime.start.p0(i64 4, ptr %7) #11
  call void @llvm.lifetime.start.p0(i64 4, ptr %8) #11
  call void @llvm.lifetime.start.p0(i64 8, ptr %9) #11
  %10 = load ptr, ptr %4, align 8, !tbaa !3
  %11 = call i32 @Gia_ManObjNum(ptr noundef %10)
  %12 = call ptr @Vec_IntStart(i32 noundef %11)
  store ptr %12, ptr %9, align 8, !tbaa !33
  %13 = load ptr, ptr %5, align 8, !tbaa !33
  %14 = load ptr, ptr %4, align 8, !tbaa !3
  %15 = call i32 @Gia_ManObjNum(ptr noundef %14)
  call void @Vec_IntFillExtra(ptr noundef %13, i32 noundef %15, i32 noundef 0)
  store i32 0, ptr %7, align 4, !tbaa !13
  br label %16

16:                                               ; preds = %39, %3
  %17 = load i32, ptr %7, align 4, !tbaa !13
  %18 = load ptr, ptr %5, align 8, !tbaa !33
  %19 = call i32 @Vec_IntSize(ptr noundef %18)
  %20 = icmp slt i32 %17, %19
  br i1 %20, label %21, label %25

21:                                               ; preds = %16
  %22 = load ptr, ptr %5, align 8, !tbaa !33
  %23 = load i32, ptr %7, align 4, !tbaa !13
  %24 = call i32 @Vec_IntEntry(ptr noundef %22, i32 noundef %23)
  store i32 %24, ptr %8, align 4, !tbaa !13
  br label %25

25:                                               ; preds = %21, %16
  %26 = phi i1 [ false, %16 ], [ true, %21 ]
  br i1 %26, label %27, label %42

27:                                               ; preds = %25
  %28 = load ptr, ptr %4, align 8, !tbaa !3
  %29 = load i32, ptr %7, align 4, !tbaa !13
  %30 = call i32 @Gia_ObjIsLut(ptr noundef %28, i32 noundef %29)
  %31 = icmp ne i32 %30, 0
  br i1 %31, label %32, label %38

32:                                               ; preds = %27
  %33 = load ptr, ptr %9, align 8, !tbaa !33
  %34 = load i32, ptr %7, align 4, !tbaa !13
  %35 = load i32, ptr %8, align 4, !tbaa !13
  %36 = load i32, ptr %6, align 4, !tbaa !13
  %37 = call i32 @Gia_ManSifTimeToCount(i32 noundef %35, i32 noundef %36)
  call void @Vec_IntWriteEntry(ptr noundef %33, i32 noundef %34, i32 noundef %37)
  br label %38

38:                                               ; preds = %32, %27
  br label %39

39:                                               ; preds = %38
  %40 = load i32, ptr %7, align 4, !tbaa !13
  %41 = add nsw i32 %40, 1
  store i32 %41, ptr %7, align 4, !tbaa !13
  br label %16, !llvm.loop !101

42:                                               ; preds = %25
  %43 = load ptr, ptr %9, align 8, !tbaa !33
  call void @llvm.lifetime.end.p0(i64 8, ptr %9) #11
  call void @llvm.lifetime.end.p0(i64 4, ptr %8) #11
  call void @llvm.lifetime.end.p0(i64 4, ptr %7) #11
  ret ptr %43
}