; Function Attrs: nounwind uwtable
define noalias noundef ptr @Gia_ManSifTimesToCounts(ptr noundef readonly captures(none) %0, ptr noundef captures(none) %1, i32 noundef %2) local_unnamed_addr #0 {
  %4 = getelementptr i8, ptr %0, i64 24
  %.val17 = load i32, ptr %4, align 8, !tbaa !44
  %5 = tail call noalias dereferenceable_or_null(16) ptr @malloc(i64 noundef 16) #25
  %6 = add i32 %.val17, -1
  %or.cond.i.i = icmp ult i32 %6, 15
  %spec.store.select.i.i = select i1 %or.cond.i.i, i32 16, i32 %.val17
  %7 = getelementptr inbounds nuw i8, ptr %5, i64 4
  store i32 %spec.store.select.i.i, ptr %5, align 8, !tbaa !43
  %.not.i.i = icmp eq i32 %spec.store.select.i.i, 0
  br i1 %.not.i.i, label %Vec_IntAlloc.exit.thread.i, label %Vec_IntAlloc.exit.i

Vec_IntAlloc.exit.thread.i:                       ; preds = %3
  %8 = getelementptr inbounds nuw i8, ptr %5, i64 8
  store ptr null, ptr %8, align 8, !tbaa !39
  store i32 %.val17, ptr %7, align 4, !tbaa !42
  br label %Vec_IntStart.exit

Vec_IntAlloc.exit.i:                              ; preds = %3
  %9 = sext i32 %spec.store.select.i.i to i64
  %10 = shl nsw i64 %9, 2
  %11 = tail call noalias ptr @malloc(i64 noundef %10) #25
  %12 = getelementptr inbounds nuw i8, ptr %5, i64 8
  store ptr %11, ptr %12, align 8, !tbaa !39
  store i32 %.val17, ptr %7, align 4, !tbaa !42
  %.not.i = icmp eq ptr %11, null
  br i1 %.not.i, label %Vec_IntStart.exit, label %13

13:                                               ; preds = %Vec_IntAlloc.exit.i
  %14 = sext i32 %.val17 to i64
  %15 = shl nsw i64 %14, 2
  tail call void @llvm.memset.p0.i64(ptr nonnull align 4 %11, i8 0, i64 %15, i1 false)
  br label %Vec_IntStart.exit

Vec_IntStart.exit:                                ; preds = %Vec_IntAlloc.exit.thread.i, %Vec_IntAlloc.exit.i, %13
  %.val15 = phi ptr [ null, %Vec_IntAlloc.exit.thread.i ], [ null, %Vec_IntAlloc.exit.i ], [ %11, %13 ]
  %16 = getelementptr inbounds nuw i8, ptr %1, i64 4
  %17 = load i32, ptr %16, align 4, !tbaa !42
  %.not.i19 = icmp sgt i32 %.val17, %17
  br i1 %.not.i19, label %18, label %Vec_IntFillExtra.exit

18:                                               ; preds = %Vec_IntStart.exit
  %19 = load i32, ptr %1, align 8, !tbaa !43
  %20 = shl nsw i32 %19, 1
  %21 = icmp sgt i32 %.val17, %20
  %.not.i.i20 = icmp slt i32 %19, %.val17
  br i1 %21, label %22, label %34

22:                                               ; preds = %18
  br i1 %.not.i.i20, label %23, label %Vec_IntGrow.exit.i

23:                                               ; preds = %22
  %24 = getelementptr inbounds nuw i8, ptr %1, i64 8
  %25 = load ptr, ptr %24, align 8, !tbaa !39
  %.not9.i.i = icmp eq ptr %25, null
  %26 = sext i32 %.val17 to i64
  %27 = shl nsw i64 %26, 2
  br i1 %.not9.i.i, label %30, label %28

28:                                               ; preds = %23
  %29 = tail call ptr @realloc(ptr noundef nonnull %25, i64 noundef %27) #27
  br label %32

30:                                               ; preds = %23
  %31 = tail call noalias ptr @malloc(i64 noundef %27) #25
  br label %32

32:                                               ; preds = %30, %28
  %33 = phi ptr [ %29, %28 ], [ %31, %30 ]
  store ptr %33, ptr %24, align 8, !tbaa !39
  br label %Vec_IntGrow.exit.sink.split.i

34:                                               ; preds = %18
  br i1 %.not.i.i20, label %35, label %Vec_IntGrow.exit.i

35:                                               ; preds = %34
  %36 = getelementptr inbounds nuw i8, ptr %1, i64 8
  %37 = load ptr, ptr %36, align 8, !tbaa !39
  %.not9.i21.i = icmp eq ptr %37, null
  %38 = sext i32 %20 to i64
  %39 = shl nsw i64 %38, 2
  br i1 %.not9.i21.i, label %42, label %40

40:                                               ; preds = %35
  %41 = tail call ptr @realloc(ptr noundef nonnull %37, i64 noundef %39) #27
  br label %44

42:                                               ; preds = %35
  %43 = tail call noalias ptr @malloc(i64 noundef %39) #25
  br label %44

44:                                               ; preds = %42, %40
  %45 = phi ptr [ %41, %40 ], [ %43, %42 ]
  store ptr %45, ptr %36, align 8, !tbaa !39
  br label %Vec_IntGrow.exit.sink.split.i

Vec_IntGrow.exit.sink.split.i:                    ; preds = %44, %32
  %.sink.i = phi i32 [ %20, %44 ], [ %.val17, %32 ]
  store i32 %.sink.i, ptr %1, align 8, !tbaa !43
  %.pre = load i32, ptr %16, align 4, !tbaa !42
  br label %Vec_IntGrow.exit.i

Vec_IntGrow.exit.i:                               ; preds = %Vec_IntGrow.exit.sink.split.i, %34, %22
  %46 = phi i32 [ %.pre, %Vec_IntGrow.exit.sink.split.i ], [ %17, %34 ], [ %17, %22 ]
  %47 = icmp slt i32 %46, %.val17
  br i1 %47, label %.lr.ph.i, label %._crit_edge.i

.lr.ph.i:                                         ; preds = %Vec_IntGrow.exit.i
  %48 = getelementptr inbounds nuw i8, ptr %1, i64 8
  %49 = load ptr, ptr %48, align 8, !tbaa !39
  %50 = sext i32 %46 to i64
  %51 = shl nsw i64 %50, 2
  %scevgep.i = getelementptr i8, ptr %49, i64 %51
  %52 = xor i32 %46, -1
  %53 = add i32 %.val17, %52
  %54 = zext i32 %53 to i64
  %55 = shl nuw nsw i64 %54, 2
  %56 = add nuw nsw i64 %55, 4
  tail call void @llvm.memset.p0.i64(ptr noundef nonnull align 4 dereferenceable(1) %scevgep.i, i8 0, i64 %56, i1 false), !tbaa !29
  br label %._crit_edge.i

._crit_edge.i:                                    ; preds = %.lr.ph.i, %Vec_IntGrow.exit.i
  store i32 %.val17, ptr %16, align 4, !tbaa !42
  br label %Vec_IntFillExtra.exit

Vec_IntFillExtra.exit:                            ; preds = %Vec_IntStart.exit, %._crit_edge.i
  %.val = phi i32 [ %17, %Vec_IntStart.exit ], [ %.val17, %._crit_edge.i ]
  %57 = icmp sgt i32 %.val, 0
  br i1 %57, label %.lr.ph, label %.critedge

.lr.ph:                                           ; preds = %Vec_IntFillExtra.exit
  %58 = getelementptr i8, ptr %0, i64 264
  %.val18 = load ptr, ptr %58, align 8, !tbaa !38
  %59 = getelementptr i8, ptr %.val18, i64 8
  %.val18.val = load ptr, ptr %59, align 8, !tbaa !39
  %60 = getelementptr i8, ptr %1, i64 8
  %61 = mul nsw i32 %2, 65535
  %62 = zext nneg i32 %.val to i64
  br label %63

63:                                               ; preds = %.lr.ph, %77
  %indvars.iv = phi i64 [ 0, %.lr.ph ], [ %indvars.iv.next, %77 ]
  %64 = getelementptr inbounds nuw i32, ptr %.val18.val, i64 %indvars.iv
  %65 = load i32, ptr %64, align 4, !tbaa !29
  %.not21 = icmp eq i32 %65, 0
  br i1 %.not21, label %77, label %66

66:                                               ; preds = %63
  %.val14 = load ptr, ptr %60, align 8, !tbaa !39
  %67 = getelementptr inbounds nuw i32, ptr %.val14, i64 %indvars.iv
  %68 = load i32, ptr %67, align 4, !tbaa !29
  %69 = add nsw i32 %68, %61
  %70 = sdiv i32 %69, %2
  %71 = srem i32 %69, %2
  %72 = icmp ne i32 %71, 0
  %73 = zext i1 %72 to i32
  %74 = add i32 %70, -65536
  %75 = add i32 %74, %73
  %76 = getelementptr inbounds nuw i32, ptr %.val15, i64 %indvars.iv
  store i32 %75, ptr %76, align 4, !tbaa !29
  br label %77

77:                                               ; preds = %63, %66
  %indvars.iv.next = add nuw nsw i64 %indvars.iv, 1
  %78 = icmp samesign ult i64 %indvars.iv.next, %62
  br i1 %78, label %63, label %.critedge, !llvm.loop !98

.critedge:                                        ; preds = %77, %Vec_IntFillExtra.exit
  ret ptr %5
}